target datalayout = "e-m:e-p270:32:32-p271:32:32-p272:64:64-i64:64-i128:128-f80:128-n8:16:32:64-S128"
target triple = "x86_64-pc-linux-gnu"

%struct.dt_import_metadata_t = type { ptr, ptr, ptr, ptr, ptr }
%struct._GTypeInstance = type { ptr }
%struct._GTypeClass = type { i64 }

@.str.33 = private unnamed_addr constant [1 x i8] zeroinitializer, align 1

; Function Attrs: nounwind uwtable
define internal void @_metadata_reset_all(ptr noundef %0, i32 noundef %1) #0 {
  %3 = alloca ptr, align 8
  %4 = alloca i32, align 4
  %5 = alloca i32, align 4
  %6 = alloca ptr, align 8
  %7 = alloca ptr, align 8
  %8 = alloca i64, align 8
  %9 = alloca i32, align 4
  %10 = alloca i32, align 4
  %11 = alloca i32, align 4
  %12 = alloca i32, align 4
  %13 = alloca ptr, align 8
  %14 = alloca ptr, align 8
  %15 = alloca i64, align 8
  %16 = alloca i32, align 4
  %17 = alloca i32, align 4
  store ptr %0, ptr %3, align 8, !tbaa !6
  store i32 %1, ptr %4, align 4, !tbaa !61
  call void @llvm.lifetime.start.p0(i64 4, ptr %5) #7
  store i32 1, ptr %5, align 4, !tbaa !61
  br label %18

18:                                               ; preds = %72, %2
  %19 = load i32, ptr %5, align 4, !tbaa !61
  %20 = icmp ult i32 %19, 12
  br i1 %20, label %22, label %21

21:                                               ; preds = %18
  call void @llvm.lifetime.end.p0(i64 4, ptr %5) #7
  br label %75

22:                                               ; preds = %18
  call void @llvm.lifetime.start.p0(i64 8, ptr %6) #7
  %23 = load ptr, ptr %3, align 8, !tbaa !6
  %24 = getelementptr inbounds nuw %struct.dt_import_metadata_t, ptr %23, i32 0, i32 2
  %25 = load ptr, ptr %24, align 8, !tbaa !13
  %26 = call i64 @gtk_grid_get_type() #8
  %27 = call ptr @g_type_check_instance_cast(ptr noundef %25, i64 noundef %26)
  %28 = load i32, ptr %5, align 4, !tbaa !61
  %29 = call ptr @gtk_grid_get_child_at(ptr noundef %27, i32 noundef 1, i32 noundef %28)
  store ptr %29, ptr %6, align 8, !tbaa !11
  call void @llvm.lifetime.start.p0(i64 8, ptr %7) #7
  %30 = load ptr, ptr %6, align 8, !tbaa !11
  store ptr %30, ptr %7, align 8, !tbaa !91
  call void @llvm.lifetime.start.p0(i64 8, ptr %8) #7
  %31 = call i64 @gtk_entry_get_type() #8
  store i64 %31, ptr %8, align 8, !tbaa !62
  call void @llvm.lifetime.start.p0(i64 4, ptr %9) #7
  %32 = load ptr, ptr %7, align 8, !tbaa !91
  %33 = icmp ne ptr %32, null
  br i1 %33, label %35, label %34

34:                                               ; preds = %22
  store i32 0, ptr %9, align 4, !tbaa !61
  br label %54

35:                                               ; preds = %22
  %36 = load ptr, ptr %7, align 8, !tbaa !91
  %37 = getelementptr inbounds nuw %struct._GTypeInstance, ptr %36, i32 0, i32 0
  %38 = load ptr, ptr %37, align 8, !tbaa !93
  %39 = icmp ne ptr %38, null
  br i1 %39, label %40, label %49

40:                                               ; preds = %35
  %41 = load ptr, ptr %7, align 8, !tbaa !91
  %42 = getelementptr inbounds nuw %struct._GTypeInstance, ptr %41, i32 0, i32 0
  %43 = load ptr, ptr %42, align 8, !tbaa !93
  %44 = getelementptr inbounds nuw %struct._GTypeClass, ptr %43, i32 0, i32 0
  %45 = load i64, ptr %44, align 8, !tbaa !96
  %46 = load i64, ptr %8, align 8, !tbaa !62
  %47 = icmp eq i64 %45, %46
  br i1 %47, label %48, label %49

48:                                               ; preds = %40
  store i32 1, ptr %9, align 4, !tbaa !61
  br label %53

49:                                               ; preds = %40, %35
  %50 = load ptr, ptr %7, align 8, !tbaa !91
  %51 = load i64, ptr %8, align 8, !tbaa !62
  %52 = call i32 @g_type_check_instance_is_a(ptr noundef %50, i64 noundef %51) #9
  store i32 %52, ptr %9, align 4, !tbaa !61
  br label %53

53:                                               ; preds = %49, %48
  br label %54

54:                                               ; preds = %53, %34
  %55 = load i32, ptr %9, align 4, !tbaa !61
  store i32 %55, ptr %10, align 4, !tbaa !61
  call void @llvm.lifetime.end.p0(i64 4, ptr %9) #7
  call void @llvm.lifetime.end.p0(i64 8, ptr %8) #7
  call void @llvm.lifetime.end.p0(i64 8, ptr %7) #7
  %56 = load i32, ptr %10, align 4, !tbaa !61
  %57 = icmp ne i32 %56, 0
  br i1 %57, label %58, label %71

58:                                               ; preds = %54
  call void @llvm.lifetime.start.p0(i64 4, ptr %11) #7
  %59 = load ptr, ptr %6, align 8, !tbaa !11
  %60 = call i32 @gtk_widget_get_visible(ptr noundef %59)
  store i32 %60, ptr %11, align 4, !tbaa !61
  %61 = load i32, ptr %4, align 4, !tbaa !61
  %62 = icmp ne i32 %61, 0
  br i1 %62, label %66, label %63

63:                                               ; preds = %58
  %64 = load i32, ptr %11, align 4, !tbaa !61
  %65 = icmp ne i32 %64, 0
  br i1 %65, label %66, label %70

66:                                               ; preds = %63, %58
  %67 = load ptr, ptr %6, align 8, !tbaa !11
  %68 = call i64 @gtk_entry_get_type() #8
  %69 = call ptr @g_type_check_instance_cast(ptr noundef %67, i64 noundef %68)
  call void @gtk_entry_set_text(ptr noundef %69, ptr noundef @.str.33)
  br label %70

70:                                               ; preds = %66, %63
  call void @llvm.lifetime.end.p0(i64 4, ptr %11) #7
  br label %71

71:                                               ; preds = %70, %54
  call void @llvm.lifetime.end.p0(i64 8, ptr %6) #7
  br label %72

72:                                               ; preds = %71
  %73 = load i32, ptr %5, align 4, !tbaa !61
  %74 = add i32 %73, 1
  store i32 %74, ptr %5, align 4, !tbaa !61
  br label %18

75:                                               ; preds = %21
  %76 = load i32, ptr %4, align 4, !tbaa !61
  %77 = icmp ne i32 %76, 0
  br i1 %77, label %78, label %128

78:                                               ; preds = %75
  call void @llvm.lifetime.start.p0(i64 4, ptr %12) #7
  store i32 1, ptr %12, align 4, !tbaa !61
  br label %79

79:                                               ; preds = %124, %78
  %80 = load i32, ptr %12, align 4, !tbaa !61
  %81 = icmp ult i32 %80, 12
  br i1 %81, label %83, label %82

82:                                               ; preds = %79
  call void @llvm.lifetime.end.p0(i64 4, ptr %12) #7
  br label %127

83:                                               ; preds = %79
  call void @llvm.lifetime.start.p0(i64 8, ptr %13) #7
  %84 = load ptr, ptr %3, align 8, !tbaa !6
  %85 = getelementptr inbounds nuw %struct.dt_import_metadata_t, ptr %84, i32 0, i32 2
  %86 = load ptr, ptr %85, align 8, !tbaa !13
  %87 = call i64 @gtk_grid_get_type() #8
  %88 = call ptr @g_type_check_instance_cast(ptr noundef %86, i64 noundef %87)
  %89 = load i32, ptr %12, align 4, !tbaa !61
  %90 = call ptr @gtk_grid_get_child_at(ptr noundef %88, i32 noundef 2, i32 noundef %89)
  store ptr %90, ptr %13, align 8, !tbaa !11
  call void @llvm.lifetime.start.p0(i64 8, ptr %14) #7
  %91 = load ptr, ptr %13, align 8, !tbaa !11
  store ptr %91, ptr %14, align 8, !tbaa !91
  call void @llvm.lifetime.start.p0(i64 8, ptr %15) #7
  %92 = call i64 @gtk_toggle_button_get_type() #8
  store i64 %92, ptr %15, align 8, !tbaa !62
  call void @llvm.lifetime.start.p0(i64 4, ptr %16) #7
  %93 = load ptr, ptr %14, align 8, !tbaa !91
  %94 = icmp ne ptr %93, null
  br i1 %94, label %96, label %95

95:                                               ; preds = %83
  store i32 0, ptr %16, align 4, !tbaa !61
  br label %115

96:                                               ; preds = %83
  %97 = load ptr, ptr %14, align 8, !tbaa !91
  %98 = getelementptr inbounds nuw %struct._GTypeInstance, ptr %97, i32 0, i32 0
  %99 = load ptr, ptr %98, align 8, !tbaa !93
  %100 = icmp ne ptr %99, null
  br i1 %100, label %101, label %110

101:                                              ; preds = %96
  %102 = load ptr, ptr %14, align 8, !tbaa !91
  %103 = getelementptr inbounds nuw %struct._GTypeInstance, ptr %102, i32 0, i32 0
  %104 = load ptr, ptr %103, align 8, !tbaa !93
  %105 = getelementptr inbounds nuw %struct._GTypeClass, ptr %104, i32 0, i32 0
  %106 = load i64, ptr %105, align 8, !tbaa !96
  %107 = load i64, ptr %15, align 8, !tbaa !62
  %108 = icmp eq i64 %106, %107
  br i1 %108, label %109, label %110

109:                                              ; preds = %101
  store i32 1, ptr %16, align 4, !tbaa !61
  br label %114

110:                                              ; preds = %101, %96
  %111 = load ptr, ptr %14, align 8, !tbaa !91
  %112 = load i64, ptr %15, align 8, !tbaa !62
  %113 = call i32 @g_type_check_instance_is_a(ptr noundef %111, i64 noundef %112) #9
  store i32 %113, ptr %16, align 4, !tbaa !61
  br label %114

114:                                              ; preds = %110, %109
  br label %115

115:                                              ; preds = %114, %95
  %116 = load i32, ptr %16, align 4, !tbaa !61
  store i32 %116, ptr %17, align 4, !tbaa !61
  call void @llvm.lifetime.end.p0(i64 4, ptr %16) #7
  call void @llvm.lifetime.end.p0(i64 8, ptr %15) #7
  call void @llvm.lifetime.end.p0(i64 8, ptr %14) #7
  %117 = load i32, ptr %17, align 4, !tbaa !61
  %118 = icmp ne i32 %117, 0
  br i1 %118, label %119, label %123

119:                                              ; preds = %115
  %120 = load ptr, ptr %13, align 8, !tbaa !11
  %121 = call i64 @gtk_toggle_button_get_type() #8
  %122 = call ptr @g_type_check_instance_cast(ptr noundef %120, i64 noundef %121)
  call void @gtk_toggle_button_set_active(ptr noundef %122, i32 noundef 1)
  br label %123

123:                                              ; preds = %119, %115
  call void @llvm.lifetime.end.p0(i64 8, ptr %13) #7
  br label %124

124:                                              ; preds = %123
  %125 = load i32, ptr %12, align 4, !tbaa !61
  %126 = add i32 %125, 1
  store i32 %126, ptr %12, align 4, !tbaa !61
  br label %79

127:                                              ; preds = %82
  br label %128

128:                                              ; preds = %127, %75
  ret void
}