; Function Attrs: nounwind uwtable
define internal fastcc void @_metadata_reset_all(ptr noundef readonly captures(none) %0, i32 noundef range(i32 0, 2) %1) unnamed_addr #0 {
  %3 = getelementptr inbounds nuw i8, ptr %0, i64 16
  %4 = tail call i64 @gtk_grid_get_type() #11
  %.not55 = icmp eq i32 %1, 0
  br i1 %.not55, label %.split, label %.split.us

.split.us:                                        ; preds = %2, %.critedge.us
  %.051.us = phi i32 [ %19, %.critedge.us ], [ 1, %2 ]
  %5 = load ptr, ptr %3, align 8, !tbaa !6
  %6 = tail call ptr @g_type_check_instance_cast(ptr noundef %5, i64 noundef %4) #10
  %7 = tail call ptr @gtk_grid_get_child_at(ptr noundef %6, i32 noundef 1, i32 noundef %.051.us) #10
  %8 = tail call i64 @gtk_entry_get_type() #11
  %.not42.us = icmp eq ptr %7, null
  br i1 %.not42.us, label %.critedge.us, label %9

9:                                                ; preds = %.split.us
  %10 = load ptr, ptr %7, align 8, !tbaa !77
  %.not43.us = icmp eq ptr %10, null
  br i1 %.not43.us, label %14, label %11

11:                                               ; preds = %9
  %12 = load i64, ptr %10, align 8, !tbaa !80
  %13 = icmp eq i64 %12, %8
  br i1 %13, label %.critedge46.us, label %14

14:                                               ; preds = %11, %9
  %15 = tail call i32 @g_type_check_instance_is_a(ptr noundef nonnull %7, i64 noundef %8) #13
  %16 = icmp eq i32 %15, 0
  br i1 %16, label %.critedge.us, label %.critedge46.us

.critedge46.us:                                   ; preds = %14, %11
  %17 = tail call i32 @gtk_widget_get_visible(ptr noundef nonnull %7) #10
  %18 = tail call ptr @g_type_check_instance_cast(ptr noundef nonnull %7, i64 noundef %8) #10
  tail call void @gtk_entry_set_text(ptr noundef %18, ptr noundef nonnull @.str.33) #10
  br label %.critedge.us

.critedge.us:                                     ; preds = %.critedge46.us, %14, %.split.us
  %19 = add nuw nsw i32 %.051.us, 1
  %exitcond.not = icmp eq i32 %19, 12
  br i1 %exitcond.not, label %.split53.us, label %.split.us

.split53.us:                                      ; preds = %.critedge.us, %.critedge
  br i1 %.not55, label %.loopexit, label %.preheader

.split:                                           ; preds = %2, %.critedge
  %.051 = phi i32 [ %35, %.critedge ], [ 1, %2 ]
  %20 = load ptr, ptr %3, align 8, !tbaa !6
  %21 = tail call ptr @g_type_check_instance_cast(ptr noundef %20, i64 noundef %4) #10
  %22 = tail call ptr @gtk_grid_get_child_at(ptr noundef %21, i32 noundef 1, i32 noundef %.051) #10
  %23 = tail call i64 @gtk_entry_get_type() #11
  %.not42 = icmp eq ptr %22, null
  br i1 %.not42, label %.critedge, label %24

24:                                               ; preds = %.split
  %25 = load ptr, ptr %22, align 8, !tbaa !77
  %.not43 = icmp eq ptr %25, null
  br i1 %.not43, label %29, label %26

26:                                               ; preds = %24
  %27 = load i64, ptr %25, align 8, !tbaa !80
  %28 = icmp eq i64 %27, %23
  br i1 %28, label %.critedge46, label %29

29:                                               ; preds = %26, %24
  %30 = tail call i32 @g_type_check_instance_is_a(ptr noundef nonnull %22, i64 noundef %23) #13
  %31 = icmp eq i32 %30, 0
  br i1 %31, label %.critedge, label %.critedge46

.critedge46:                                      ; preds = %26, %29
  %32 = tail call i32 @gtk_widget_get_visible(ptr noundef nonnull %22) #10
  %.not56 = icmp eq i32 %32, 0
  br i1 %.not56, label %.critedge, label %33

33:                                               ; preds = %.critedge46
  %34 = tail call ptr @g_type_check_instance_cast(ptr noundef nonnull %22, i64 noundef %23) #10
  tail call void @gtk_entry_set_text(ptr noundef %34, ptr noundef nonnull @.str.33) #10
  br label %.critedge

.critedge:                                        ; preds = %.split, %33, %.critedge46, %29
  %35 = add nuw nsw i32 %.051, 1
  %exitcond58.not = icmp eq i32 %35, 12
  br i1 %exitcond58.not, label %.split53.us, label %.split

.preheader:                                       ; preds = %.split53.us, %.critedge48
  %.03454 = phi i32 [ %49, %.critedge48 ], [ 1, %.split53.us ]
  %36 = load ptr, ptr %3, align 8, !tbaa !6
  %37 = tail call ptr @g_type_check_instance_cast(ptr noundef %36, i64 noundef %4) #10
  %38 = tail call ptr @gtk_grid_get_child_at(ptr noundef %37, i32 noundef 2, i32 noundef %.03454) #10
  %39 = tail call i64 @gtk_toggle_button_get_type() #11
  %.not39 = icmp eq ptr %38, null
  br i1 %.not39, label %.critedge48, label %40

40:                                               ; preds = %.preheader
  %41 = load ptr, ptr %38, align 8, !tbaa !77
  %.not40 = icmp eq ptr %41, null
  br i1 %.not40, label %45, label %42

42:                                               ; preds = %40
  %43 = load i64, ptr %41, align 8, !tbaa !80
  %44 = icmp eq i64 %43, %39
  br i1 %44, label %.critedge50, label %45

45:                                               ; preds = %42, %40
  %46 = tail call i32 @g_type_check_instance_is_a(ptr noundef nonnull %38, i64 noundef %39) #13
  %47 = icmp eq i32 %46, 0
  br i1 %47, label %.critedge48, label %.critedge50

.critedge50:                                      ; preds = %42, %45
  %48 = tail call ptr @g_type_check_instance_cast(ptr noundef nonnull %38, i64 noundef %39) #10
  tail call void @gtk_toggle_button_set_active(ptr noundef %48, i32 noundef 1) #10
  br label %.critedge48

.critedge48:                                      ; preds = %.preheader, %.critedge50, %45
  %49 = add nuw nsw i32 %.03454, 1
  %exitcond59.not = icmp eq i32 %49, 12
  br i1 %exitcond59.not, label %.loopexit, label %.preheader

.loopexit:                                        ; preds = %.critedge48, %.split53.us
  ret void
}